
/home/jonathas/wsFreedomStudio/rocket-ap-fw/src/release/hello.elf:     file format elf32-littleriscv
/home/jonathas/wsFreedomStudio/rocket-ap-fw/src/release/hello.elf
architecture: riscv:rv32, flags 0x00000112:
EXEC_P, HAS_SYMS, D_PAGED
start address 0x08000000

Program Header:
    LOAD off    0x00001000 vaddr 0x08000000 paddr 0x08000000 align 2**12
         filesz 0x000002f0 memsz 0x000002f0 flags r-x
    LOAD off    0x000012f0 vaddr 0x00000000 paddr 0x00000000 align 2**12
         filesz 0x00000000 memsz 0x00000000 flags ---
    LOAD off    0x00002000 vaddr 0x80000000 paddr 0x80000000 align 2**12
         filesz 0x00000000 memsz 0x00000400 flags rw-
     TLS off    0x00000000 vaddr 0x00000000 paddr 0x00000000 align 2**2
         filesz 0x00000000 memsz 0x00000000 flags ---
    LOAD off    0x000017b0 vaddr 0x080007b0 paddr 0x080007b0 align 2**12
         filesz 0x00000064 memsz 0x00000900 flags rw-
    LOAD off    0x00001814 vaddr 0x00000000 paddr 0x00000000 align 2**12
         filesz 0x00000000 memsz 0x00000000 flags ---
    LOAD off    0x000022f0 vaddr 0x080002f0 paddr 0x080002f0 align 2**12
         filesz 0x000004c0 memsz 0x000004c0 flags r-x

Sections:
Idx Name              Size      VMA       LMA       File off  Algn  Flags
  0 .init             000002c2  08000000  08000000  00001000  2**4  CONTENTS, ALLOC, LOAD, READONLY, CODE
  1 .rodata           0000002c  080002c4  080002c4  000012c4  2**2  CONTENTS, ALLOC, LOAD, READONLY, DATA
  2 .text             000004c0  080002f0  080002f0  000022f0  2**1  CONTENTS, ALLOC, LOAD, READONLY, CODE
  3 .data             00000064  080007b0  080007b0  000017b0  2**3  CONTENTS, ALLOC, LOAD, DATA
  4 .bss              00000098  08000818  08000818  00001814  2**3  ALLOC
  5 .stack            00000400  80000000  80000000  00002000  2**4  ALLOC
  6 .heap             00000800  080008b0  080008b0  00001814  2**2  ALLOC
  7 .comment          00000028  00000000  00000000  000027b0  2**0  CONTENTS, READONLY
  8 .riscv.attributes 0000002b  00000000  00000000  000027d8  2**0  CONTENTS, READONLY
SYMBOL TABLE:
08000000 l    d  .init	00000000 .init
080002c4 l    d  .rodata	00000000 .rodata
080002f0 l    d  .text	00000000 .text
080007b0 l    d  .data	00000000 .data
08000818 l    d  .bss	00000000 .bss
80000000 l    d  .stack	00000000 .stack
080008b0 l    d  .heap	00000000 .heap
00000000 l    d  .comment	00000000 .comment
00000000 l    d  .riscv.attributes	00000000 .riscv.attributes
00000000 l    df *ABS*	00000000 scrub.o
08000096 l     F .init	00000000 _metal_memory_scrub
08000176 l       .init	00000000 skip_scrub
0800016e l       .init	00000000 wait_scrub
080000f2 l       .init	00000000 dtim_scrub
08000108 l       .init	00000000 ils_scrub
0800011e l       .init	00000000 dls_scrub
08000134 l       .init	00000000 sram_scrub
0800014a l       .init	00000000 memory_scrub
08000160 l       .init	00000000 done_scrub
00000000 l    df *ABS*	00000000 synchronize_harts.c
00000000 l    df *ABS*	00000000 crt0.o
08000240 l       .init	00000000 _skip_init
080002da l       .rodata	00000000 argv
080002de l       .rodata	00000000 envp
080002e2 l       .rodata	00000000 name
00000000 l    df *ABS*	00000000 hello.c
00000000 l    df *ABS*	00000000 ap_hal.c
00000000 l    df *ABS*	00000000 atexit.c
00000000 l    df *ABS*	00000000 exit.c
00000000 l    df *ABS*	00000000 fini.c
00000000 l    df *ABS*	00000000 init.c
00000000 l    df *ABS*	00000000 __atexit.c
08000824 l     O .bss	0000008c _global_atexit0
00000000 l    df *ABS*	00000000 __call_atexit.c
00000000 l    df *ABS*	00000000 init.c
0800081c l     O .bss	00000004 fini_done.1540
08000820 l     O .bss	00000004 init_done.1531
00000000 l    df *ABS*	00000000 shutdown.c
00000000 l    df *ABS*	00000000 sys_exit.c
00000000 l    df *ABS*	00000000 impure.c
080007b0 l     O .data	00000060 impure_data
00000000 l    df *ABS*	00000000 
080002c8 l       .rodata	00000000 metal_constructors_end
080002c8 l       .rodata	00000000 __fini_array_end
080002c8 l       .rodata	00000000 metal_destructors_end
080002c8 l       .rodata	00000000 metal_destructors_start
080002c8 l       .rodata	00000000 __fini_array_start
080002c8 l       .rodata	00000000 __init_array_end
080002c8 l       .rodata	00000000 __preinit_array_end
080002c8 l       .rodata	00000000 __init_array_start
080002c8 l       .rodata	00000000 metal_constructors_start
080002c8 l       .rodata	00000000 __preinit_array_start
80004000 g       *ABS*	00000000 metal_dtim_0_memory_end
08000466 g     F .text	00000056 ap_computing
08001010 g       .data	00000000 __global_pointer$
08000818 g       .data	00000000 __tls_base
080008b0 g       .bss	00000000 metal_segment_bss_target_end
00000001 g       *ABS*	00000000 __metal_chicken_bit
80008000 g       .rodata	00000000 metal_segment_itim_target_start
08000000 g       *ABS*	00000000 metal_itim_0_memory_start
0800018a g     F .init	00000002 __metal_synchronize_harts
08000818 g       .data	00000000 metal_segment_bss_target_start
00000400 g       *ABS*	00000000 __stack_size
080000a2  w    F .init	00000000 __metal_before_start
080007a2  w    F .text	00000002 metal_init_run
00000000 g       *ABS*	00000000 __metal_eccscrub_bit
080004de g     F .text	00000016 memcpy
080003fe g     F .text	00000068 ap_read_vector
08000366 g     F .text	00000030 warmup_ap
08000716 g     F .text	00000044 metal_init
08000810 g     O .data	00000004 _global_impure_ptr
08000560 g     F .text	0000006a __libc_init_array
080002a2 g     F .init	00000002 _init
08000528 g     F .text	00000038 __libc_fini_array
0800075a g     F .text	00000048 metal_fini
080007b0 g       .data	00000000 metal_segment_data_target_start
00000000 g       *ABS*	00000000 __tbss_size
00000800 g       *ABS*	00000000 __heap_size
0800030a g     F .text	0000004e ap_computing_test
08000818 g     O .bss	00000004 _global_atexit
0800064e g     F .text	000000c8 __call_exitprocs
80000400 g       .stack	00000000 _sp
0800018c g     F .init	00000000 _start
080005ca g     F .text	00000084 __register_exitproc
080002a4  w    F .init	00000000 secondary_main
080002f0 g     F .text	0000001a main
08000818 g       .data	00000000 metal_segment_data_target_end
080007a6 g     F .text	00000004 metal_shutdown
80008000 g       .rodata	00000000 metal_segment_itim_target_end
08000000 g       .init	00000000 _enter
080002f0 g       *ABS*	00000000 metal_segment_itim_source_start
080002a2 g     F .init	00000002 _fini
080004f4 g     F .text	0000000a atexit
80000000 g       *ABS*	00000000 metal_dtim_0_memory_start
080007b0 g       *ABS*	00000000 metal_segment_data_source_start
0800017c g       .init	00000000 early_trap_vector
080004bc g     F .text	00000022 ap_irq_check
08000396 g     F .text	00000068 ap_write_vector
08000358 g     F .text	0000000e tiny_delay
080004fe g     F .text	0000002a exit
080007a4  w    F .text	00000002 metal_fini_run
080007aa g     F .text	00000006 _exit
08004000 g       *ABS*	00000000 metal_itim_0_memory_end
08000094  w      .init	00000000 __register_frame_info
00000000 g       *ABS*	00000000 __metal_boot_hart



Disassembly of section .init:

08000000 <_enter>:
_enter():
 8000000:	00001197          	auipc	gp,0x1
 8000004:	01018193          	addi	gp,gp,16 # 8001010 <__global_pointer$>
 8000008:	00000297          	auipc	t0,0x0
 800000c:	01828293          	addi	t0,t0,24 # 8000020 <_enter+0x20>
 8000010:	30529073          	csrw	mtvec,t0
 8000014:	00100293          	li	t0,1
 8000018:	00028463          	beqz	t0,8000020 <_enter+0x20>
 800001c:	7c105073          	csrwi	0x7c1,0
 8000020:	00000297          	auipc	t0,0x0
 8000024:	15c28293          	addi	t0,t0,348 # 800017c <early_trap_vector>
 8000028:	30529073          	csrw	mtvec,t0
 800002c:	f8000117          	auipc	sp,0xf8000
 8000030:	fd410113          	addi	sp,sp,-44 # 0 <__metal_boot_hart>
 8000034:	00011663          	bnez	sp,8000040 <_enter+0x40>
 8000038:	78000117          	auipc	sp,0x78000
 800003c:	3c810113          	addi	sp,sp,968 # 80000400 <_sp>
 8000040:	f1402573          	csrr	a0,mhartid
 8000044:	4281                	li	t0,0
 8000046:	40000313          	li	t1,1024
 800004a:	ff017113          	andi	sp,sp,-16
 800004e:	00a28563          	beq	t0,a0,8000058 <_enter+0x58>
 8000052:	911a                	add	sp,sp,t1
 8000054:	0285                	addi	t0,t0,1
 8000056:	bfd5                	j	800004a <_enter+0x4a>
 8000058:	00000097          	auipc	ra,0x0
 800005c:	04a08093          	addi	ra,ra,74 # 80000a2 <__metal_before_start>
 8000060:	00008363          	beqz	ra,8000066 <_enter+0x66>
 8000064:	9082                	jalr	ra
 8000066:	f1402573          	csrr	a0,mhartid
 800006a:	4581                	li	a1,0
 800006c:	4601                	li	a2,0
 800006e:	2a39                	jal	800018c <_start>
 8000070:	f8000097          	auipc	ra,0xf8000
 8000074:	f9008093          	addi	ra,ra,-112 # 0 <__metal_boot_hart>
 8000078:	00008363          	beqz	ra,800007e <_enter+0x7e>
 800007c:	9082                	jalr	ra
 800007e:	00000297          	auipc	t0,0x0
 8000082:	00c28293          	addi	t0,t0,12 # 800008a <_enter+0x8a>
 8000086:	30529073          	csrw	mtvec,t0
 800008a:	00002303          	lw	t1,0(zero) # 0 <__metal_boot_hart>
 800008e:	bff5                	j	800008a <_enter+0x8a>
 8000090:	0000                	unimp
	...

08000094 <__register_frame_info>:
__register_frame_info():
 8000094:	8082                	ret

08000096 <_metal_memory_scrub>:
_metal_memory_scrub():
 8000096:	00032023          	sw	zero,0(t1)
 800009a:	0311                	addi	t1,t1,4
 800009c:	fe734de3          	blt	t1,t2,8000096 <_metal_memory_scrub>
 80000a0:	8082                	ret

080000a2 <__metal_before_start>:
__metal_before_start():
 80000a2:	8406                	mv	s0,ra
 80000a4:	f8000297          	auipc	t0,0xf8000
 80000a8:	f5c28293          	addi	t0,t0,-164 # 0 <__metal_boot_hart>
 80000ac:	0c028563          	beqz	t0,8000176 <skip_scrub>
 80000b0:	f8000297          	auipc	t0,0xf8000
 80000b4:	f5028293          	addi	t0,t0,-176 # 0 <__metal_boot_hart>
 80000b8:	f14027f3          	csrr	a5,mhartid
 80000bc:	46a1                	li	a3,8
 80000be:	3006b073          	csrc	mstatus,a3
 80000c2:	0a579663          	bne	a5,t0,800016e <wait_scrub>
 80000c6:	00000317          	auipc	t1,0x0
 80000ca:	f3a30313          	addi	t1,t1,-198 # 8000000 <_enter>
 80000ce:	00004397          	auipc	t2,0x4
 80000d2:	f3238393          	addi	t2,t2,-206 # 8004000 <metal_itim_0_memory_end>
 80000d6:	00730e63          	beq	t1,t2,80000f2 <dtim_scrub>
 80000da:	3f75                	jal	8000096 <_metal_memory_scrub>
 80000dc:	f8000317          	auipc	t1,0xf8000
 80000e0:	f2430313          	addi	t1,t1,-220 # 0 <__metal_boot_hart>
 80000e4:	f8000397          	auipc	t2,0xf8000
 80000e8:	f1c38393          	addi	t2,t2,-228 # 0 <__metal_boot_hart>
 80000ec:	00730363          	beq	t1,t2,80000f2 <dtim_scrub>
 80000f0:	375d                	jal	8000096 <_metal_memory_scrub>

080000f2 <dtim_scrub>:
dtim_scrub():
 80000f2:	78000317          	auipc	t1,0x78000
 80000f6:	f0e30313          	addi	t1,t1,-242 # 80000000 <metal_dtim_0_memory_start>
 80000fa:	78004397          	auipc	t2,0x78004
 80000fe:	f0638393          	addi	t2,t2,-250 # 80004000 <metal_dtim_0_memory_end>
 8000102:	00730363          	beq	t1,t2,8000108 <ils_scrub>
 8000106:	3f41                	jal	8000096 <_metal_memory_scrub>

08000108 <ils_scrub>:
ils_scrub():
 8000108:	f8000317          	auipc	t1,0xf8000
 800010c:	ef830313          	addi	t1,t1,-264 # 0 <__metal_boot_hart>
 8000110:	f8000397          	auipc	t2,0xf8000
 8000114:	ef038393          	addi	t2,t2,-272 # 0 <__metal_boot_hart>
 8000118:	00730363          	beq	t1,t2,800011e <dls_scrub>
 800011c:	3fad                	jal	8000096 <_metal_memory_scrub>

0800011e <dls_scrub>:
dls_scrub():
 800011e:	f8000317          	auipc	t1,0xf8000
 8000122:	ee230313          	addi	t1,t1,-286 # 0 <__metal_boot_hart>
 8000126:	f8000397          	auipc	t2,0xf8000
 800012a:	eda38393          	addi	t2,t2,-294 # 0 <__metal_boot_hart>
 800012e:	00730363          	beq	t1,t2,8000134 <sram_scrub>
 8000132:	3795                	jal	8000096 <_metal_memory_scrub>

08000134 <sram_scrub>:
sram_scrub():
 8000134:	f8000317          	auipc	t1,0xf8000
 8000138:	ecc30313          	addi	t1,t1,-308 # 0 <__metal_boot_hart>
 800013c:	f8000397          	auipc	t2,0xf8000
 8000140:	ec438393          	addi	t2,t2,-316 # 0 <__metal_boot_hart>
 8000144:	00730363          	beq	t1,t2,800014a <memory_scrub>
 8000148:	37b9                	jal	8000096 <_metal_memory_scrub>

0800014a <memory_scrub>:
memory_scrub():
 800014a:	f8000317          	auipc	t1,0xf8000
 800014e:	eb630313          	addi	t1,t1,-330 # 0 <__metal_boot_hart>
 8000152:	f8000397          	auipc	t2,0xf8000
 8000156:	eae38393          	addi	t2,t2,-338 # 0 <__metal_boot_hart>
 800015a:	00730363          	beq	t1,t2,8000160 <done_scrub>
 800015e:	3f25                	jal	8000096 <_metal_memory_scrub>

08000160 <done_scrub>:
done_scrub():
 8000160:	02000737          	lui	a4,0x2000
 8000164:	4785                	li	a5,1
 8000166:	c31c                	sw	a5,0(a4)
 8000168:	0130000f          	fence	w,rw
 800016c:	a029                	j	8000176 <skip_scrub>

0800016e <wait_scrub>:
wait_scrub():
 800016e:	02000737          	lui	a4,0x2000
 8000172:	431c                	lw	a5,0(a4)
 8000174:	dfed                	beqz	a5,800016e <wait_scrub>

08000176 <skip_scrub>:
skip_scrub():
 8000176:	80a2                	mv	ra,s0
 8000178:	8082                	ret
	...

0800017c <early_trap_vector>:
early_trap_vector():
 800017c:	342022f3          	csrr	t0,mcause
 8000180:	34102373          	csrr	t1,mepc
 8000184:	343023f3          	csrr	t2,mtval
 8000188:	bfd5                	j	800017c <early_trap_vector>

0800018a <__metal_synchronize_harts>:
__metal_synchronize_harts():
 800018a:	8082                	ret

0800018c <_start>:
_start():
 800018c:	8406                	mv	s0,ra
 800018e:	00001197          	auipc	gp,0x1
 8000192:	e8218193          	addi	gp,gp,-382 # 8001010 <__global_pointer$>
 8000196:	00000293          	li	t0,0
 800019a:	0a551363          	bne	a0,t0,8000240 <_skip_init>
 800019e:	00000297          	auipc	t0,0x0
 80001a2:	61228293          	addi	t0,t0,1554 # 80007b0 <metal_segment_data_source_start>
 80001a6:	00000317          	auipc	t1,0x0
 80001aa:	60a30313          	addi	t1,t1,1546 # 80007b0 <metal_segment_data_source_start>
 80001ae:	00000397          	auipc	t2,0x0
 80001b2:	66a38393          	addi	t2,t2,1642 # 8000818 <__tls_base>
 80001b6:	00628c63          	beq	t0,t1,80001ce <_start+0x42>
 80001ba:	00735a63          	bge	t1,t2,80001ce <_start+0x42>
 80001be:	0002a503          	lw	a0,0(t0)
 80001c2:	0291                	addi	t0,t0,4
 80001c4:	00a32023          	sw	a0,0(t1)
 80001c8:	0311                	addi	t1,t1,4
 80001ca:	fe734ae3          	blt	t1,t2,80001be <_start+0x32>
 80001ce:	00000297          	auipc	t0,0x0
 80001d2:	12228293          	addi	t0,t0,290 # 80002f0 <metal_segment_itim_source_start>
 80001d6:	78008317          	auipc	t1,0x78008
 80001da:	e2a30313          	addi	t1,t1,-470 # 80008000 <metal_segment_itim_target_end>
 80001de:	78008397          	auipc	t2,0x78008
 80001e2:	e2238393          	addi	t2,t2,-478 # 80008000 <metal_segment_itim_target_end>
 80001e6:	00628c63          	beq	t0,t1,80001fe <_start+0x72>
 80001ea:	00735a63          	bge	t1,t2,80001fe <_start+0x72>
 80001ee:	0002a503          	lw	a0,0(t0)
 80001f2:	0291                	addi	t0,t0,4
 80001f4:	00a32023          	sw	a0,0(t1)
 80001f8:	0311                	addi	t1,t1,4
 80001fa:	fe734ae3          	blt	t1,t2,80001ee <_start+0x62>
 80001fe:	0000100f          	fence.i
 8000202:	00000317          	auipc	t1,0x0
 8000206:	61630313          	addi	t1,t1,1558 # 8000818 <__tls_base>
 800020a:	8a018393          	addi	t2,gp,-1888 # 80008b0 <metal_segment_bss_target_end>
 800020e:	00735763          	bge	t1,t2,800021c <_start+0x90>
 8000212:	00032023          	sw	zero,0(t1)
 8000216:	0311                	addi	t1,t1,4
 8000218:	fe734de3          	blt	t1,t2,8000212 <_start+0x86>
 800021c:	00000217          	auipc	tp,0x0
 8000220:	5fc20213          	addi	tp,tp,1532 # 8000818 <__tls_base>
 8000224:	c211                	beqz	a2,8000228 <_start+0x9c>
 8000226:	9602                	jalr	a2
 8000228:	00000517          	auipc	a0,0x0
 800022c:	30050513          	addi	a0,a0,768 # 8000528 <__libc_fini_array>
 8000230:	24d1                	jal	80004f4 <atexit>
 8000232:	263d                	jal	8000560 <__libc_init_array>
 8000234:	00000517          	auipc	a0,0x0
 8000238:	57050513          	addi	a0,a0,1392 # 80007a4 <metal_fini_run>
 800023c:	2c65                	jal	80004f4 <atexit>
 800023e:	2395                	jal	80007a2 <metal_init_run>

08000240 <_skip_init>:
_skip_init():
 8000240:	37a9                	jal	800018a <__metal_synchronize_harts>
 8000242:	56fd                	li	a3,-1
 8000244:	3046b073          	csrc	mie,a3
 8000248:	3446b073          	csrc	mip,a3
 800024c:	301027f3          	csrr	a5,misa
 8000250:	00042737          	lui	a4,0x42
 8000254:	8f7d                	and	a4,a4,a5
 8000256:	c709                	beqz	a4,8000260 <_skip_init+0x20>
 8000258:	3036b073          	csrc	mideleg,a3
 800025c:	3026b073          	csrc	medeleg,a3
 8000260:	00040737          	lui	a4,0x40
 8000264:	8f7d                	and	a4,a4,a5
 8000266:	c319                	beqz	a4,800026c <_skip_init+0x2c>
 8000268:	1806b073          	csrc	satp,a3
 800026c:	00010737          	lui	a4,0x10
 8000270:	02870713          	addi	a4,a4,40 # 10028 <__heap_size+0xf828>
 8000274:	8ff9                	and	a5,a5,a4
 8000276:	cb89                	beqz	a5,8000288 <_skip_init+0x48>
 8000278:	300027f3          	csrr	a5,mstatus
 800027c:	6709                	lui	a4,0x2
 800027e:	8fd9                	or	a5,a5,a4
 8000280:	30079073          	csrw	mstatus,a5
 8000284:	00305073          	csrwi	fcsr,0
 8000288:	4505                	li	a0,1
 800028a:	00000597          	auipc	a1,0x0
 800028e:	05058593          	addi	a1,a1,80 # 80002da <argv>
 8000292:	00000617          	auipc	a2,0x0
 8000296:	04c60613          	addi	a2,a2,76 # 80002de <envp>
 800029a:	2029                	jal	80002a4 <secondary_main>
 800029c:	248d                	jal	80004fe <exit>
 800029e:	80a2                	mv	ra,s0
 80002a0:	8082                	ret

080002a2 <_fini>:
_init():
 80002a2:	8082                	ret

080002a4 <secondary_main>:
secondary_main():
 80002a4:	1141                	addi	sp,sp,-16
 80002a6:	c206                	sw	ra,4(sp)
 80002a8:	f14022f3          	csrr	t0,mhartid
 80002ac:	00000313          	li	t1,0
 80002b0:	00628563          	beq	t0,t1,80002ba <secondary_main+0x16>
 80002b4:	10500073          	wfi
 80002b8:	bff5                	j	80002b4 <secondary_main+0x10>
 80002ba:	281d                	jal	80002f0 <metal_segment_itim_source_start>
 80002bc:	4092                	lw	ra,4(sp)
 80002be:	0141                	addi	sp,sp,16
 80002c0:	8082                	ret

Disassembly of section .text:

080002f0 <main>:
main():
 80002f0:	1141                	addi	sp,sp,-16
 80002f2:	c606                	sw	ra,12(sp)
 80002f4:	288d                	jal	8000366 <warmup_ap>
 80002f6:	2811                	jal	800030a <ap_computing_test>
 80002f8:	800007b7          	lui	a5,0x80000
 80002fc:	577d                	li	a4,-1
 80002fe:	00e78023          	sb	a4,0(a5) # 80000000 <metal_segment_itim_target_end+0xffff8000>
 8000302:	40b2                	lw	ra,12(sp)
 8000304:	4501                	li	a0,0
 8000306:	0141                	addi	sp,sp,16
 8000308:	8082                	ret

0800030a <ap_computing_test>:
ap_computing_test():
 800030a:	7139                	addi	sp,sp,-64
 800030c:	080005b7          	lui	a1,0x8000
 8000310:	dc22                	sw	s0,56(sp)
 8000312:	4629                	li	a2,10
 8000314:	2c458413          	addi	s0,a1,708 # 80002c4 <secondary_main+0x20>
 8000318:	0068                	addi	a0,sp,12
 800031a:	2c458593          	addi	a1,a1,708
 800031e:	de06                	sw	ra,60(sp)
 8000320:	2a7d                	jal	80004de <memcpy>
 8000322:	4629                	li	a2,10
 8000324:	00c40593          	addi	a1,s0,12
 8000328:	0828                	addi	a0,sp,24
 800032a:	2a55                	jal	80004de <memcpy>
 800032c:	47a9                	li	a5,10
 800032e:	0838                	addi	a4,sp,24
 8000330:	0074                	addi	a3,sp,12
 8000332:	4601                	li	a2,0
 8000334:	4581                	li	a1,0
 8000336:	4505                	li	a0,1
 8000338:	223d                	jal	8000466 <ap_computing>
 800033a:	2249                	jal	80004bc <ap_irq_check>
 800033c:	dd7d                	beqz	a0,800033a <ap_computing_test+0x30>
 800033e:	800047b7          	lui	a5,0x80004
 8000342:	1050                	addi	a2,sp,36
 8000344:	3007a223          	sw	zero,772(a5) # 80004304 <metal_segment_itim_target_end+0xffffc304>
 8000348:	46a9                	li	a3,10
 800034a:	4581                	li	a1,0
 800034c:	4509                	li	a0,2
 800034e:	2845                	jal	80003fe <ap_read_vector>
 8000350:	50f2                	lw	ra,60(sp)
 8000352:	5462                	lw	s0,56(sp)
 8000354:	6121                	addi	sp,sp,64
 8000356:	8082                	ret

08000358 <tiny_delay>:
tiny_delay():
 8000358:	4781                	li	a5,0
 800035a:	00a79363          	bne	a5,a0,8000360 <tiny_delay+0x8>
 800035e:	8082                	ret
 8000360:	0001                	nop
 8000362:	0785                	addi	a5,a5,1
 8000364:	bfdd                	j	800035a <tiny_delay+0x2>

08000366 <warmup_ap>:
warmup_ap():
 8000366:	800047b7          	lui	a5,0x80004
 800036a:	6741                	lui	a4,0x10
 800036c:	3007a023          	sw	zero,768(a5) # 80004300 <metal_segment_itim_target_end+0xffffc300>
 8000370:	00170693          	addi	a3,a4,1 # 10001 <__heap_size+0xf801>
 8000374:	30d7a223          	sw	a3,772(a5)
 8000378:	30e7a223          	sw	a4,772(a5)
 800037c:	01000637          	lui	a2,0x1000
 8000380:	30c7a023          	sw	a2,768(a5)
 8000384:	30d7a223          	sw	a3,772(a5)
 8000388:	30e7a223          	sw	a4,772(a5)
 800038c:	3007a023          	sw	zero,768(a5)
 8000390:	3007a223          	sw	zero,772(a5)
 8000394:	8082                	ret

08000396 <ap_write_vector>:
ap_write_vector():
 8000396:	08000793          	li	a5,128
 800039a:	06d7e163          	bltu	a5,a3,80003fc <ap_write_vector+0x66>
 800039e:	1101                	addi	sp,sp,-32
 80003a0:	cc22                	sw	s0,24(sp)
 80003a2:	01859793          	slli	a5,a1,0x18
 80003a6:	01051713          	slli	a4,a0,0x10
 80003aa:	0ff57413          	andi	s0,a0,255
 80003ae:	8fd9                	or	a5,a5,a4
 80003b0:	0422                	slli	s0,s0,0x8
 80003b2:	80004737          	lui	a4,0x80004
 80003b6:	0ff5f593          	andi	a1,a1,255
 80003ba:	ca26                	sw	s1,20(sp)
 80003bc:	c84a                	sw	s2,16(sp)
 80003be:	c64e                	sw	s3,12(sp)
 80003c0:	ce06                	sw	ra,28(sp)
 80003c2:	943a                	add	s0,s0,a4
 80003c4:	059e                	slli	a1,a1,0x7
 80003c6:	8936                	mv	s2,a3
 80003c8:	89b2                	mv	s3,a2
 80003ca:	30f72023          	sw	a5,768(a4) # 80004300 <metal_segment_itim_target_end+0xffffc300>
 80003ce:	942e                	add	s0,s0,a1
 80003d0:	4481                	li	s1,0
 80003d2:	00991963          	bne	s2,s1,80003e4 <ap_write_vector+0x4e>
 80003d6:	40f2                	lw	ra,28(sp)
 80003d8:	4462                	lw	s0,24(sp)
 80003da:	44d2                	lw	s1,20(sp)
 80003dc:	4942                	lw	s2,16(sp)
 80003de:	49b2                	lw	s3,12(sp)
 80003e0:	6105                	addi	sp,sp,32
 80003e2:	8082                	ret
 80003e4:	00998733          	add	a4,s3,s1
 80003e8:	00074703          	lbu	a4,0(a4)
 80003ec:	009407b3          	add	a5,s0,s1
 80003f0:	4505                	li	a0,1
 80003f2:	00e78023          	sb	a4,0(a5)
 80003f6:	378d                	jal	8000358 <tiny_delay>
 80003f8:	0485                	addi	s1,s1,1
 80003fa:	bfe1                	j	80003d2 <ap_write_vector+0x3c>
 80003fc:	8082                	ret

080003fe <ap_read_vector>:
ap_read_vector():
 80003fe:	08000793          	li	a5,128
 8000402:	06d7e163          	bltu	a5,a3,8000464 <ap_read_vector+0x66>
 8000406:	1101                	addi	sp,sp,-32
 8000408:	cc22                	sw	s0,24(sp)
 800040a:	01859793          	slli	a5,a1,0x18
 800040e:	01051713          	slli	a4,a0,0x10
 8000412:	0ff57413          	andi	s0,a0,255
 8000416:	8fd9                	or	a5,a5,a4
 8000418:	0422                	slli	s0,s0,0x8
 800041a:	80004737          	lui	a4,0x80004
 800041e:	0ff5f593          	andi	a1,a1,255
 8000422:	ca26                	sw	s1,20(sp)
 8000424:	c84a                	sw	s2,16(sp)
 8000426:	c64e                	sw	s3,12(sp)
 8000428:	ce06                	sw	ra,28(sp)
 800042a:	943a                	add	s0,s0,a4
 800042c:	059e                	slli	a1,a1,0x7
 800042e:	8936                	mv	s2,a3
 8000430:	89b2                	mv	s3,a2
 8000432:	30f72023          	sw	a5,768(a4) # 80004300 <metal_segment_itim_target_end+0xffffc300>
 8000436:	942e                	add	s0,s0,a1
 8000438:	4481                	li	s1,0
 800043a:	00991963          	bne	s2,s1,800044c <ap_read_vector+0x4e>
 800043e:	40f2                	lw	ra,28(sp)
 8000440:	4462                	lw	s0,24(sp)
 8000442:	44d2                	lw	s1,20(sp)
 8000444:	4942                	lw	s2,16(sp)
 8000446:	49b2                	lw	s3,12(sp)
 8000448:	6105                	addi	sp,sp,32
 800044a:	8082                	ret
 800044c:	008487b3          	add	a5,s1,s0
 8000450:	0007c703          	lbu	a4,0(a5)
 8000454:	009987b3          	add	a5,s3,s1
 8000458:	4505                	li	a0,1
 800045a:	00e78023          	sb	a4,0(a5)
 800045e:	3ded                	jal	8000358 <tiny_delay>
 8000460:	0485                	addi	s1,s1,1
 8000462:	bfe1                	j	800043a <ap_read_vector+0x3c>
 8000464:	8082                	ret

08000466 <ap_computing>:
ap_computing():
 8000466:	1101                	addi	sp,sp,-32
 8000468:	cc22                	sw	s0,24(sp)
 800046a:	c84a                	sw	s2,16(sp)
 800046c:	8432                	mv	s0,a2
 800046e:	892a                	mv	s2,a0
 8000470:	8636                	mv	a2,a3
 8000472:	4501                	li	a0,0
 8000474:	86be                	mv	a3,a5
 8000476:	ce06                	sw	ra,28(sp)
 8000478:	ca26                	sw	s1,20(sp)
 800047a:	c63a                	sw	a4,12(sp)
 800047c:	84ae                	mv	s1,a1
 800047e:	c43e                	sw	a5,8(sp)
 8000480:	3f19                	jal	8000396 <ap_write_vector>
 8000482:	47a2                	lw	a5,8(sp)
 8000484:	4732                	lw	a4,12(sp)
 8000486:	85a6                	mv	a1,s1
 8000488:	86be                	mv	a3,a5
 800048a:	863a                	mv	a2,a4
 800048c:	4505                	li	a0,1
 800048e:	3721                	jal	8000396 <ap_write_vector>
 8000490:	0422                	slli	s0,s0,0x8
 8000492:	80004737          	lui	a4,0x80004
 8000496:	67c1                	lui	a5,0x10
 8000498:	01246433          	or	s0,s0,s2
 800049c:	04e2                	slli	s1,s1,0x18
 800049e:	30f72223          	sw	a5,772(a4) # 80004304 <metal_segment_itim_target_end+0xffffc304>
 80004a2:	8c45                	or	s0,s0,s1
 80004a4:	30872023          	sw	s0,768(a4)
 80004a8:	40f2                	lw	ra,28(sp)
 80004aa:	4462                	lw	s0,24(sp)
 80004ac:	10078793          	addi	a5,a5,256 # 10100 <__heap_size+0xf900>
 80004b0:	30f72223          	sw	a5,772(a4)
 80004b4:	44d2                	lw	s1,20(sp)
 80004b6:	4942                	lw	s2,16(sp)
 80004b8:	6105                	addi	sp,sp,32
 80004ba:	8082                	ret

080004bc <ap_irq_check>:
ap_irq_check():
 80004bc:	800047b7          	lui	a5,0x80004
 80004c0:	3087a783          	lw	a5,776(a5) # 80004308 <metal_segment_itim_target_end+0xffffc308>
 80004c4:	1101                	addi	sp,sp,-32
 80004c6:	4505                	li	a0,1
 80004c8:	0ff7f793          	andi	a5,a5,255
 80004cc:	ce06                	sw	ra,28(sp)
 80004ce:	00f107a3          	sb	a5,15(sp)
 80004d2:	3559                	jal	8000358 <tiny_delay>
 80004d4:	40f2                	lw	ra,28(sp)
 80004d6:	00f14503          	lbu	a0,15(sp)
 80004da:	6105                	addi	sp,sp,32
 80004dc:	8082                	ret

080004de <memcpy>:
memcpy():
 80004de:	832a                	mv	t1,a0
 80004e0:	ca09                	beqz	a2,80004f2 <memcpy+0x14>
 80004e2:	00058383          	lb	t2,0(a1)
 80004e6:	00730023          	sb	t2,0(t1)
 80004ea:	167d                	addi	a2,a2,-1
 80004ec:	0305                	addi	t1,t1,1
 80004ee:	0585                	addi	a1,a1,1
 80004f0:	fa6d                	bnez	a2,80004e2 <memcpy+0x4>
 80004f2:	8082                	ret

080004f4 <atexit>:
atexit():
 80004f4:	85aa                	mv	a1,a0
 80004f6:	4681                	li	a3,0
 80004f8:	4601                	li	a2,0
 80004fa:	4501                	li	a0,0
 80004fc:	a0f9                	j	80005ca <__register_exitproc>

080004fe <exit>:
exit():
 80004fe:	1141                	addi	sp,sp,-16
 8000500:	c422                	sw	s0,8(sp)
 8000502:	c606                	sw	ra,12(sp)
 8000504:	00000797          	auipc	a5,0x0
 8000508:	14a78793          	addi	a5,a5,330 # 800064e <__call_exitprocs>
 800050c:	842a                	mv	s0,a0
 800050e:	c399                	beqz	a5,8000514 <exit+0x16>
 8000510:	4581                	li	a1,0
 8000512:	2a35                	jal	800064e <__call_exitprocs>
 8000514:	00000797          	auipc	a5,0x0
 8000518:	2fc78793          	addi	a5,a5,764 # 8000810 <_global_impure_ptr>
 800051c:	4388                	lw	a0,0(a5)
 800051e:	551c                	lw	a5,40(a0)
 8000520:	c391                	beqz	a5,8000524 <exit+0x26>
 8000522:	9782                	jalr	a5
 8000524:	8522                	mv	a0,s0
 8000526:	2451                	jal	80007aa <_exit>

08000528 <__libc_fini_array>:
__libc_fini_array():
 8000528:	1141                	addi	sp,sp,-16
 800052a:	00000797          	auipc	a5,0x0
 800052e:	d9e78793          	addi	a5,a5,-610 # 80002c8 <__fini_array_end>
 8000532:	c422                	sw	s0,8(sp)
 8000534:	00000417          	auipc	s0,0x0
 8000538:	d9440413          	addi	s0,s0,-620 # 80002c8 <__fini_array_end>
 800053c:	8c1d                	sub	s0,s0,a5
 800053e:	c226                	sw	s1,4(sp)
 8000540:	c606                	sw	ra,12(sp)
 8000542:	8409                	srai	s0,s0,0x2
 8000544:	84be                	mv	s1,a5
 8000546:	e411                	bnez	s0,8000552 <__libc_fini_array+0x2a>
 8000548:	40b2                	lw	ra,12(sp)
 800054a:	4422                	lw	s0,8(sp)
 800054c:	4492                	lw	s1,4(sp)
 800054e:	0141                	addi	sp,sp,16
 8000550:	8082                	ret
 8000552:	147d                	addi	s0,s0,-1
 8000554:	00241793          	slli	a5,s0,0x2
 8000558:	97a6                	add	a5,a5,s1
 800055a:	439c                	lw	a5,0(a5)
 800055c:	9782                	jalr	a5
 800055e:	b7e5                	j	8000546 <__libc_fini_array+0x1e>

08000560 <__libc_init_array>:
__libc_init_array():
 8000560:	1141                	addi	sp,sp,-16
 8000562:	00000797          	auipc	a5,0x0
 8000566:	d6678793          	addi	a5,a5,-666 # 80002c8 <__fini_array_end>
 800056a:	c422                	sw	s0,8(sp)
 800056c:	00000417          	auipc	s0,0x0
 8000570:	d5c40413          	addi	s0,s0,-676 # 80002c8 <__fini_array_end>
 8000574:	8c1d                	sub	s0,s0,a5
 8000576:	c226                	sw	s1,4(sp)
 8000578:	c04a                	sw	s2,0(sp)
 800057a:	c606                	sw	ra,12(sp)
 800057c:	8409                	srai	s0,s0,0x2
 800057e:	4481                	li	s1,0
 8000580:	893e                	mv	s2,a5
 8000582:	02849663          	bne	s1,s0,80005ae <__libc_init_array+0x4e>
 8000586:	00000797          	auipc	a5,0x0
 800058a:	d4278793          	addi	a5,a5,-702 # 80002c8 <__fini_array_end>
 800058e:	00000417          	auipc	s0,0x0
 8000592:	d3a40413          	addi	s0,s0,-710 # 80002c8 <__fini_array_end>
 8000596:	8c1d                	sub	s0,s0,a5
 8000598:	8409                	srai	s0,s0,0x2
 800059a:	4481                	li	s1,0
 800059c:	893e                	mv	s2,a5
 800059e:	00849f63          	bne	s1,s0,80005bc <__libc_init_array+0x5c>
 80005a2:	40b2                	lw	ra,12(sp)
 80005a4:	4422                	lw	s0,8(sp)
 80005a6:	4492                	lw	s1,4(sp)
 80005a8:	4902                	lw	s2,0(sp)
 80005aa:	0141                	addi	sp,sp,16
 80005ac:	8082                	ret
 80005ae:	00249793          	slli	a5,s1,0x2
 80005b2:	97ca                	add	a5,a5,s2
 80005b4:	439c                	lw	a5,0(a5)
 80005b6:	0485                	addi	s1,s1,1
 80005b8:	9782                	jalr	a5
 80005ba:	b7e1                	j	8000582 <__libc_init_array+0x22>
 80005bc:	00249793          	slli	a5,s1,0x2
 80005c0:	97ca                	add	a5,a5,s2
 80005c2:	439c                	lw	a5,0(a5)
 80005c4:	0485                	addi	s1,s1,1
 80005c6:	9782                	jalr	a5
 80005c8:	bfd9                	j	800059e <__libc_init_array+0x3e>

080005ca <__register_exitproc>:
__register_exitproc():
 80005ca:	00000797          	auipc	a5,0x0
 80005ce:	24e78793          	addi	a5,a5,590 # 8000818 <__tls_base>
 80005d2:	439c                	lw	a5,0(a5)
 80005d4:	8e2a                	mv	t3,a0
 80005d6:	e38d                	bnez	a5,80005f8 <__register_exitproc+0x2e>
 80005d8:	81418713          	addi	a4,gp,-2028 # 8000824 <_global_atexit0>
 80005dc:	00000797          	auipc	a5,0x0
 80005e0:	22e7ae23          	sw	a4,572(a5) # 8000818 <__tls_base>
 80005e4:	f8000517          	auipc	a0,0xf8000
 80005e8:	a1c50513          	addi	a0,a0,-1508 # 0 <__metal_boot_hart>
 80005ec:	87ba                	mv	a5,a4
 80005ee:	c509                	beqz	a0,80005f8 <__register_exitproc+0x2e>
 80005f0:	411c                	lw	a5,0(a0)
 80005f2:	88f1ae23          	sw	a5,-1892(gp) # 80008ac <_global_atexit0+0x88>
 80005f6:	87ba                	mv	a5,a4
 80005f8:	43d8                	lw	a4,4(a5)
 80005fa:	487d                	li	a6,31
 80005fc:	557d                	li	a0,-1
 80005fe:	04e84763          	blt	a6,a4,800064c <__register_exitproc+0x82>
 8000602:	020e0e63          	beqz	t3,800063e <__register_exitproc+0x74>
 8000606:	0887a803          	lw	a6,136(a5)
 800060a:	04080163          	beqz	a6,800064c <__register_exitproc+0x82>
 800060e:	00271893          	slli	a7,a4,0x2
 8000612:	98c2                	add	a7,a7,a6
 8000614:	00c8a023          	sw	a2,0(a7)
 8000618:	10082303          	lw	t1,256(a6)
 800061c:	4605                	li	a2,1
 800061e:	00e61633          	sll	a2,a2,a4
 8000622:	00c36333          	or	t1,t1,a2
 8000626:	10682023          	sw	t1,256(a6)
 800062a:	08d8a023          	sw	a3,128(a7)
 800062e:	4689                	li	a3,2
 8000630:	00de1763          	bne	t3,a3,800063e <__register_exitproc+0x74>
 8000634:	10482683          	lw	a3,260(a6)
 8000638:	8e55                	or	a2,a2,a3
 800063a:	10c82223          	sw	a2,260(a6)
 800063e:	00170693          	addi	a3,a4,1
 8000642:	070a                	slli	a4,a4,0x2
 8000644:	c3d4                	sw	a3,4(a5)
 8000646:	97ba                	add	a5,a5,a4
 8000648:	c78c                	sw	a1,8(a5)
 800064a:	4501                	li	a0,0
 800064c:	8082                	ret

0800064e <__call_exitprocs>:
__call_exitprocs():
 800064e:	7179                	addi	sp,sp,-48
 8000650:	cc52                	sw	s4,24(sp)
 8000652:	ca56                	sw	s5,20(sp)
 8000654:	c85a                	sw	s6,16(sp)
 8000656:	c65e                	sw	s7,12(sp)
 8000658:	d606                	sw	ra,44(sp)
 800065a:	d422                	sw	s0,40(sp)
 800065c:	d226                	sw	s1,36(sp)
 800065e:	d04a                	sw	s2,32(sp)
 8000660:	ce4e                	sw	s3,28(sp)
 8000662:	c462                	sw	s8,8(sp)
 8000664:	8b2a                	mv	s6,a0
 8000666:	8a2e                	mv	s4,a1
 8000668:	00000a97          	auipc	s5,0x0
 800066c:	1b0a8a93          	addi	s5,s5,432 # 8000818 <__tls_base>
 8000670:	4b85                	li	s7,1
 8000672:	000aa403          	lw	s0,0(s5)
 8000676:	c811                	beqz	s0,800068a <__call_exitprocs+0x3c>
 8000678:	4044                	lw	s1,4(s0)
 800067a:	08842983          	lw	s3,136(s0)
 800067e:	fff48913          	addi	s2,s1,-1
 8000682:	048a                	slli	s1,s1,0x2
 8000684:	94a2                	add	s1,s1,s0
 8000686:	00095e63          	bgez	s2,80006a2 <__call_exitprocs+0x54>
 800068a:	50b2                	lw	ra,44(sp)
 800068c:	5422                	lw	s0,40(sp)
 800068e:	5492                	lw	s1,36(sp)
 8000690:	5902                	lw	s2,32(sp)
 8000692:	49f2                	lw	s3,28(sp)
 8000694:	4a62                	lw	s4,24(sp)
 8000696:	4ad2                	lw	s5,20(sp)
 8000698:	4b42                	lw	s6,16(sp)
 800069a:	4bb2                	lw	s7,12(sp)
 800069c:	4c22                	lw	s8,8(sp)
 800069e:	6145                	addi	sp,sp,48
 80006a0:	8082                	ret
 80006a2:	000a0e63          	beqz	s4,80006be <__call_exitprocs+0x70>
 80006a6:	00099563          	bnez	s3,80006b0 <__call_exitprocs+0x62>
 80006aa:	197d                	addi	s2,s2,-1
 80006ac:	14f1                	addi	s1,s1,-4
 80006ae:	bfe1                	j	8000686 <__call_exitprocs+0x38>
 80006b0:	00291793          	slli	a5,s2,0x2
 80006b4:	97ce                	add	a5,a5,s3
 80006b6:	0807a783          	lw	a5,128(a5)
 80006ba:	ff4798e3          	bne	a5,s4,80006aa <__call_exitprocs+0x5c>
 80006be:	4058                	lw	a4,4(s0)
 80006c0:	40dc                	lw	a5,4(s1)
 80006c2:	177d                	addi	a4,a4,-1
 80006c4:	03271863          	bne	a4,s2,80006f4 <__call_exitprocs+0xa6>
 80006c8:	01242223          	sw	s2,4(s0)
 80006cc:	dff9                	beqz	a5,80006aa <__call_exitprocs+0x5c>
 80006ce:	00442c03          	lw	s8,4(s0)
 80006d2:	00098863          	beqz	s3,80006e2 <__call_exitprocs+0x94>
 80006d6:	1009a683          	lw	a3,256(s3)
 80006da:	012b9733          	sll	a4,s7,s2
 80006de:	8ef9                	and	a3,a3,a4
 80006e0:	ee89                	bnez	a3,80006fa <__call_exitprocs+0xac>
 80006e2:	9782                	jalr	a5
 80006e4:	4058                	lw	a4,4(s0)
 80006e6:	000aa783          	lw	a5,0(s5)
 80006ea:	f98714e3          	bne	a4,s8,8000672 <__call_exitprocs+0x24>
 80006ee:	faf40ee3          	beq	s0,a5,80006aa <__call_exitprocs+0x5c>
 80006f2:	b741                	j	8000672 <__call_exitprocs+0x24>
 80006f4:	0004a223          	sw	zero,4(s1)
 80006f8:	bfd1                	j	80006cc <__call_exitprocs+0x7e>
 80006fa:	00291693          	slli	a3,s2,0x2
 80006fe:	96ce                	add	a3,a3,s3
 8000700:	428c                	lw	a1,0(a3)
 8000702:	1049a683          	lw	a3,260(s3)
 8000706:	8f75                	and	a4,a4,a3
 8000708:	e701                	bnez	a4,8000710 <__call_exitprocs+0xc2>
 800070a:	855a                	mv	a0,s6
 800070c:	9782                	jalr	a5
 800070e:	bfd9                	j	80006e4 <__call_exitprocs+0x96>
 8000710:	852e                	mv	a0,a1
 8000712:	9782                	jalr	a5
 8000714:	bfc1                	j	80006e4 <__call_exitprocs+0x96>

08000716 <metal_init>:
metal_init():
 8000716:	81018793          	addi	a5,gp,-2032 # 8000820 <init_done.1531>
 800071a:	4398                	lw	a4,0(a5)
 800071c:	ef15                	bnez	a4,8000758 <metal_init+0x42>
 800071e:	1141                	addi	sp,sp,-16
 8000720:	c422                	sw	s0,8(sp)
 8000722:	c226                	sw	s1,4(sp)
 8000724:	08000437          	lui	s0,0x8000
 8000728:	c606                	sw	ra,12(sp)
 800072a:	4705                	li	a4,1
 800072c:	080004b7          	lui	s1,0x8000
 8000730:	c398                	sw	a4,0(a5)
 8000732:	2c848493          	addi	s1,s1,712 # 80002c8 <__fini_array_end>
 8000736:	2c840793          	addi	a5,s0,712 # 80002c8 <__fini_array_end>
 800073a:	2c840413          	addi	s0,s0,712
 800073e:	0097ea63          	bltu	a5,s1,8000752 <metal_init+0x3c>
 8000742:	40b2                	lw	ra,12(sp)
 8000744:	4422                	lw	s0,8(sp)
 8000746:	4492                	lw	s1,4(sp)
 8000748:	0141                	addi	sp,sp,16
 800074a:	8082                	ret
 800074c:	401c                	lw	a5,0(s0)
 800074e:	0411                	addi	s0,s0,4
 8000750:	9782                	jalr	a5
 8000752:	fe941de3          	bne	s0,s1,800074c <metal_init+0x36>
 8000756:	b7f5                	j	8000742 <metal_init+0x2c>
 8000758:	8082                	ret

0800075a <metal_fini>:
metal_fini():
 800075a:	080017b7          	lui	a5,0x8001
 800075e:	81c78793          	addi	a5,a5,-2020 # 800081c <fini_done.1540>
 8000762:	4398                	lw	a4,0(a5)
 8000764:	ef15                	bnez	a4,80007a0 <metal_fini+0x46>
 8000766:	1141                	addi	sp,sp,-16
 8000768:	c422                	sw	s0,8(sp)
 800076a:	c226                	sw	s1,4(sp)
 800076c:	08000437          	lui	s0,0x8000
 8000770:	c606                	sw	ra,12(sp)
 8000772:	4705                	li	a4,1
 8000774:	080004b7          	lui	s1,0x8000
 8000778:	c398                	sw	a4,0(a5)
 800077a:	2c848493          	addi	s1,s1,712 # 80002c8 <__fini_array_end>
 800077e:	2c840793          	addi	a5,s0,712 # 80002c8 <__fini_array_end>
 8000782:	2c840413          	addi	s0,s0,712
 8000786:	0097ea63          	bltu	a5,s1,800079a <metal_fini+0x40>
 800078a:	40b2                	lw	ra,12(sp)
 800078c:	4422                	lw	s0,8(sp)
 800078e:	4492                	lw	s1,4(sp)
 8000790:	0141                	addi	sp,sp,16
 8000792:	8082                	ret
 8000794:	401c                	lw	a5,0(s0)
 8000796:	0411                	addi	s0,s0,4
 8000798:	9782                	jalr	a5
 800079a:	fe941de3          	bne	s0,s1,8000794 <metal_fini+0x3a>
 800079e:	b7f5                	j	800078a <metal_fini+0x30>
 80007a0:	8082                	ret

080007a2 <metal_init_run>:
metal_init_run():
 80007a2:	bf95                	j	8000716 <metal_init>

080007a4 <metal_fini_run>:
metal_fini_run():
 80007a4:	bf5d                	j	800075a <metal_fini>

080007a6 <metal_shutdown>:
metal_shutdown():
 80007a6:	0001                	nop
 80007a8:	bffd                	j	80007a6 <metal_shutdown>

080007aa <_exit>:
_exit():
 80007aa:	1141                	addi	sp,sp,-16
 80007ac:	c606                	sw	ra,12(sp)
 80007ae:	3fe5                	jal	80007a6 <metal_shutdown>
